target datalayout = "e-m:e-p270:32:32-p271:32:32-p272:64:64-i64:64-i128:128-f80:128-n8:16:32:64-S128"
target triple = "x86_64-pc-linux-gnu"

%struct.Abc_Frame_t_ = type { ptr, ptr, ptr, ptr, ptr, ptr, ptr, ptr, ptr, ptr, i32, i32, i32, i32, i32, ptr, float, float, i32, i32, ptr, ptr, ptr, double, double, ptr, ptr, ptr, ptr, ptr, ptr, ptr, ptr, ptr, ptr, ptr, ptr, float, ptr, i32, ptr, ptr, ptr, ptr, ptr, i32, i32, i32, i32, i32, i32, ptr, ptr, ptr, ptr, ptr, ptr, i32, i32, ptr, ptr, ptr, ptr, ptr, ptr, ptr, ptr, ptr, ptr, ptr, ptr, ptr, ptr, ptr, ptr, ptr, ptr, ptr, ptr, ptr, ptr, ptr, ptr, ptr, ptr, ptr, ptr, ptr, ptr }
%struct.Vec_Ptr_t_ = type { i32, i32, ptr }

@.str = private unnamed_addr constant [4 x i8] c"set\00", align 1
@.str.1 = private unnamed_addr constant [6 x i8] c"unset\00", align 1
@.str.2 = private unnamed_addr constant [5 x i8] c"time\00", align 1
@.str.3 = private unnamed_addr constant [5 x i8] c"quit\00", align 1
@.str.4 = private unnamed_addr constant [6 x i8] c"alias\00", align 1
@.str.5 = private unnamed_addr constant [14 x i8] c"source abc.rc\00", align 1
@.str.6 = private unnamed_addr constant [17 x i8] c"source ..\\abc.rc\00", align 1
@.str.7 = private unnamed_addr constant [8 x i8] c"history\00", align 1
@.str.8 = private unnamed_addr constant [4 x i8] c"hi \00", align 1
@.str.9 = private unnamed_addr constant [3 x i8] c"hi\00", align 1

; Function Attrs: inlinehint nounwind uwtable
define internal ptr @Vec_PtrEntry(ptr noundef %0, i32 noundef %1) #4 {
  %3 = alloca ptr, align 8
  %4 = alloca i32, align 4
  store ptr %0, ptr %3, align 8, !tbaa !31
  store i32 %1, ptr %4, align 4, !tbaa !10
  %5 = load ptr, ptr %3, align 8, !tbaa !31
  %6 = getelementptr inbounds nuw %struct.Vec_Ptr_t_, ptr %5, i32 0, i32 2
  %7 = load ptr, ptr %6, align 8, !tbaa !34
  %8 = load i32, ptr %4, align 4, !tbaa !10
  %9 = sext i32 %8 to i64
  %10 = getelementptr inbounds ptr, ptr %7, i64 %9
  %11 = load ptr, ptr %10, align 8, !tbaa !35
  ret ptr %11
}

; Function Attrs: inlinehint nounwind uwtable
define internal i32 @Abc_MaxInt(i32 noundef %0, i32 noundef %1) #4 {
  %3 = alloca i32, align 4
  %4 = alloca i32, align 4
  store i32 %0, ptr %3, align 4, !tbaa !10
  store i32 %1, ptr %4, align 4, !tbaa !10
  %5 = load i32, ptr %3, align 4, !tbaa !10
  %6 = load i32, ptr %4, align 4, !tbaa !10
  %7 = icmp sgt i32 %5, %6
  br i1 %7, label %8, label %10

8:                                                ; preds = %2
  %9 = load i32, ptr %3, align 4, !tbaa !10
  br label %12

10:                                               ; preds = %2
  %11 = load i32, ptr %4, align 4, !tbaa !10
  br label %12

12:                                               ; preds = %10, %8
  %13 = phi i32 [ %9, %8 ], [ %11, %10 ]
  ret i32 %13
}

; Function Attrs: inlinehint nounwind uwtable
define internal i32 @Vec_PtrSize(ptr noundef %0) #4 {
  %2 = alloca ptr, align 8
  store ptr %0, ptr %2, align 8, !tbaa !31
  %3 = load ptr, ptr %2, align 8, !tbaa !31
  %4 = getelementptr inbounds nuw %struct.Vec_Ptr_t_, ptr %3, i32 0, i32 1
  %5 = load i32, ptr %4, align 4, !tbaa !32
  ret i32 %5
}

; Function Attrs: nounwind uwtable
define void @Cmd_HistoryAddCommand(ptr noundef %0, ptr noundef %1) #0 {
  %3 = alloca ptr, align 8
  %4 = alloca ptr, align 8
  %5 = alloca i32, align 4
  %6 = alloca i32, align 4
  %7 = alloca [32768 x i8], align 16
  %8 = alloca i32, align 4
  %9 = alloca i32, align 4
  %10 = alloca ptr, align 8
  %11 = alloca i32, align 4
  %12 = alloca i32, align 4
  store ptr %0, ptr %3, align 8, !tbaa !3
  store ptr %1, ptr %4, align 8, !tbaa !8
  call void @llvm.lifetime.start.p0(i64 4, ptr %5) #9
  store i32 10, ptr %5, align 4, !tbaa !10
  call void @llvm.lifetime.start.p0(i64 4, ptr %6) #9
  store i32 10000, ptr %6, align 4, !tbaa !10
  call void @llvm.lifetime.start.p0(i64 32768, ptr %7) #9
  call void @llvm.lifetime.start.p0(i64 4, ptr %8) #9
  %13 = load ptr, ptr %3, align 8, !tbaa !3
  %14 = getelementptr inbounds nuw %struct.Abc_Frame_t_, ptr %13, i32 0, i32 13
  %15 = load i32, ptr %14, align 4, !tbaa !12
  %16 = icmp ne i32 %15, 0
  br i1 %16, label %17, label %18

17:                                               ; preds = %2
  store i32 1, ptr %9, align 4
  br label %152

18:                                               ; preds = %2
  %19 = load ptr, ptr %4, align 8, !tbaa !8
  %20 = call i64 @strlen(ptr noundef %19) #10
  %21 = trunc i64 %20 to i32
  store i32 %21, ptr %8, align 4, !tbaa !10
  %22 = getelementptr inbounds [32768 x i8], ptr %7, i64 0, i64 0
  %23 = load ptr, ptr %4, align 8, !tbaa !8
  %24 = call ptr @strcpy(ptr noundef %22, ptr noundef %23) #9
  %25 = load i32, ptr %8, align 4, !tbaa !10
  %26 = icmp sgt i32 %25, 0
  br i1 %26, label %27, label %40

27:                                               ; preds = %18
  %28 = load i32, ptr %8, align 4, !tbaa !10
  %29 = sub nsw i32 %28, 1
  %30 = sext i32 %29 to i64
  %31 = getelementptr inbounds [32768 x i8], ptr %7, i64 0, i64 %30
  %32 = load i8, ptr %31, align 1, !tbaa !27
  %33 = sext i8 %32 to i32
  %34 = icmp eq i32 %33, 10
  br i1 %34, label %35, label %40

35:                                               ; preds = %27
  %36 = load i32, ptr %8, align 4, !tbaa !10
  %37 = sub nsw i32 %36, 1
  %38 = sext i32 %37 to i64
  %39 = getelementptr inbounds [32768 x i8], ptr %7, i64 0, i64 %38
  store i8 0, ptr %39, align 1, !tbaa !27
  br label %40

40:                                               ; preds = %35, %27, %18
  %41 = getelementptr inbounds [32768 x i8], ptr %7, i64 0, i64 0
  %42 = call i64 @strlen(ptr noundef %41) #10
  %43 = icmp ugt i64 %42, 3
  br i1 %43, label %44, label %151

44:                                               ; preds = %40
  %45 = getelementptr inbounds [32768 x i8], ptr %7, i64 0, i64 0
  %46 = call i32 @strncmp(ptr noundef %45, ptr noundef @.str, i64 noundef 3) #10
  %47 = icmp ne i32 %46, 0
  br i1 %47, label %48, label %151

48:                                               ; preds = %44
  %49 = getelementptr inbounds [32768 x i8], ptr %7, i64 0, i64 0
  %50 = call i32 @strncmp(ptr noundef %49, ptr noundef @.str.1, i64 noundef 5) #10
  %51 = icmp ne i32 %50, 0
  br i1 %51, label %52, label %151

52:                                               ; preds = %48
  %53 = getelementptr inbounds [32768 x i8], ptr %7, i64 0, i64 0
  %54 = call i32 @strncmp(ptr noundef %53, ptr noundef @.str.2, i64 noundef 4) #10
  %55 = icmp ne i32 %54, 0
  br i1 %55, label %56, label %151

56:                                               ; preds = %52
  %57 = getelementptr inbounds [32768 x i8], ptr %7, i64 0, i64 0
  %58 = call i32 @strncmp(ptr noundef %57, ptr noundef @.str.3, i64 noundef 4) #10
  %59 = icmp ne i32 %58, 0
  br i1 %59, label %60, label %151

60:                                               ; preds = %56
  %61 = getelementptr inbounds [32768 x i8], ptr %7, i64 0, i64 0
  %62 = call i32 @strncmp(ptr noundef %61, ptr noundef @.str.4, i64 noundef 5) #10
  %63 = icmp ne i32 %62, 0
  br i1 %63, label %64, label %151

64:                                               ; preds = %60
  %65 = getelementptr inbounds [32768 x i8], ptr %7, i64 0, i64 0
  %66 = call i32 @strncmp(ptr noundef %65, ptr noundef @.str.5, i64 noundef 13) #10
  %67 = icmp ne i32 %66, 0
  br i1 %67, label %68, label %151

68:                                               ; preds = %64
  %69 = getelementptr inbounds [32768 x i8], ptr %7, i64 0, i64 0
  %70 = call i32 @strncmp(ptr noundef %69, ptr noundef @.str.6, i64 noundef 16) #10
  %71 = icmp ne i32 %70, 0
  br i1 %71, label %72, label %151

72:                                               ; preds = %68
  %73 = getelementptr inbounds [32768 x i8], ptr %7, i64 0, i64 0
  %74 = call i32 @strncmp(ptr noundef %73, ptr noundef @.str.7, i64 noundef 7) #10
  %75 = icmp ne i32 %74, 0
  br i1 %75, label %76, label %151

76:                                               ; preds = %72
  %77 = getelementptr inbounds [32768 x i8], ptr %7, i64 0, i64 0
  %78 = call i32 @strncmp(ptr noundef %77, ptr noundef @.str.8, i64 noundef 3) #10
  %79 = icmp ne i32 %78, 0
  br i1 %79, label %80, label %151

80:                                               ; preds = %76
  %81 = getelementptr inbounds [32768 x i8], ptr %7, i64 0, i64 0
  %82 = call i32 @strcmp(ptr noundef %81, ptr noundef @.str.9) #10
  %83 = icmp ne i32 %82, 0
  br i1 %83, label %84, label %151

84:                                               ; preds = %80
  %85 = getelementptr inbounds [32768 x i8], ptr %7, i64 0, i64 0
  %86 = call i64 @strlen(ptr noundef %85) #10
  %87 = sub i64 %86, 1
  %88 = getelementptr inbounds nuw [32768 x i8], ptr %7, i64 0, i64 %87
  %89 = load i8, ptr %88, align 1, !tbaa !27
  %90 = sext i8 %89 to i32
  %91 = icmp ne i32 %90, 63
  br i1 %91, label %92, label %151

92:                                               ; preds = %84
  call void @llvm.lifetime.start.p0(i64 8, ptr %10) #9
  store ptr null, ptr %10, align 8, !tbaa !8
  call void @llvm.lifetime.start.p0(i64 4, ptr %11) #9
  call void @llvm.lifetime.start.p0(i64 4, ptr %12) #9
  %93 = load ptr, ptr %3, align 8, !tbaa !3
  %94 = getelementptr inbounds nuw %struct.Abc_Frame_t_, ptr %93, i32 0, i32 5
  %95 = load ptr, ptr %94, align 8, !tbaa !28
  %96 = call i32 @Vec_PtrSize(ptr noundef %95)
  %97 = load i32, ptr %5, align 4, !tbaa !10
  %98 = sub nsw i32 %96, %97
  %99 = call i32 @Abc_MaxInt(i32 noundef 0, i32 noundef %98)
  store i32 %99, ptr %12, align 4, !tbaa !10
  %100 = load i32, ptr %12, align 4, !tbaa !10
  store i32 %100, ptr %11, align 4, !tbaa !10
  br label %101

101:                                              ; preds = %123, %92
  %102 = load i32, ptr %11, align 4, !tbaa !10
  %103 = load ptr, ptr %3, align 8, !tbaa !3
  %104 = getelementptr inbounds nuw %struct.Abc_Frame_t_, ptr %103, i32 0, i32 5
  %105 = load ptr, ptr %104, align 8, !tbaa !28
  %106 = call i32 @Vec_PtrSize(ptr noundef %105)
  %107 = icmp slt i32 %102, %106
  br i1 %107, label %108, label %114

108:                                              ; preds = %101
  %109 = load ptr, ptr %3, align 8, !tbaa !3
  %110 = getelementptr inbounds nuw %struct.Abc_Frame_t_, ptr %109, i32 0, i32 5
  %111 = load ptr, ptr %110, align 8, !tbaa !28
  %112 = load i32, ptr %11, align 4, !tbaa !10
  %113 = call ptr @Vec_PtrEntry(ptr noundef %111, i32 noundef %112)
  store ptr %113, ptr %10, align 8, !tbaa !8
  br label %114

114:                                              ; preds = %108, %101
  %115 = phi i1 [ false, %101 ], [ true, %108 ]
  br i1 %115, label %116, label %126

116:                                              ; preds = %114
  %117 = load ptr, ptr %10, align 8, !tbaa !8
  %118 = getelementptr inbounds [32768 x i8], ptr %7, i64 0, i64 0
  %119 = call i32 @strcmp(ptr noundef %117, ptr noundef %118) #10
  %120 = icmp ne i32 %119, 0
  br i1 %120, label %122, label %121

121:                                              ; preds = %116
  br label %126

122:                                              ; preds = %116
  br label %123

123:                                              ; preds = %122
  %124 = load i32, ptr %11, align 4, !tbaa !10
  %125 = add nsw i32 %124, 1
  store i32 %125, ptr %11, align 4, !tbaa !10
  br label %101, !llvm.loop !29

126:                                              ; preds = %121, %114
  %127 = load i32, ptr %11, align 4, !tbaa !10
  %128 = load ptr, ptr %3, align 8, !tbaa !3
  %129 = getelementptr inbounds nuw %struct.Abc_Frame_t_, ptr %128, i32 0, i32 5
  %130 = load ptr, ptr %129, align 8, !tbaa !28
  %131 = call i32 @Vec_PtrSize(ptr noundef %130)
  %132 = icmp eq i32 %127, %131
  br i1 %132, label %133, label %141

133:                                              ; preds = %126
  %134 = load ptr, ptr %3, align 8, !tbaa !3
  %135 = getelementptr inbounds nuw %struct.Abc_Frame_t_, ptr %134, i32 0, i32 5
  %136 = load ptr, ptr %135, align 8, !tbaa !28
  %137 = getelementptr inbounds [32768 x i8], ptr %7, i64 0, i64 0
  %138 = call ptr @Extra_UtilStrsav(ptr noundef %137)
  call void @Vec_PtrPush(ptr noundef %136, ptr noundef %138)
  %139 = load ptr, ptr %3, align 8, !tbaa !3
  %140 = load i32, ptr %6, align 4, !tbaa !10
  call void @Cmd_HistoryWrite(ptr noundef %139, i32 noundef %140)
  br label %150

141:                                              ; preds = %126
  %142 = load ptr, ptr %3, align 8, !tbaa !3
  %143 = getelementptr inbounds nuw %struct.Abc_Frame_t_, ptr %142, i32 0, i32 5
  %144 = load ptr, ptr %143, align 8, !tbaa !28
  %145 = load ptr, ptr %10, align 8, !tbaa !8
  call void @Vec_PtrRemove(ptr noundef %144, ptr noundef %145)
  %146 = load ptr, ptr %3, align 8, !tbaa !3
  %147 = getelementptr inbounds nuw %struct.Abc_Frame_t_, ptr %146, i32 0, i32 5
  %148 = load ptr, ptr %147, align 8, !tbaa !28
  %149 = load ptr, ptr %10, align 8, !tbaa !8
  call void @Vec_PtrPush(ptr noundef %148, ptr noundef %149)
  br label %150

150:                                              ; preds = %141, %133
  call void @llvm.lifetime.end.p0(i64 4, ptr %12) #9
  call void @llvm.lifetime.end.p0(i64 4, ptr %11) #9
  call void @llvm.lifetime.end.p0(i64 8, ptr %10) #9
  br label %151

151:                                              ; preds = %150, %84, %80, %76, %72, %68, %64, %60, %56, %52, %48, %44, %40
  store i32 0, ptr %9, align 4
  br label %152

152:                                              ; preds = %151, %17
  call void @llvm.lifetime.end.p0(i64 4, ptr %8) #9
  call void @llvm.lifetime.end.p0(i64 32768, ptr %7) #9
  call void @llvm.lifetime.end.p0(i64 4, ptr %6) #9
  call void @llvm.lifetime.end.p0(i64 4, ptr %5) #9
  %153 = load i32, ptr %9, align 4
  switch i32 %153, label %155 [
    i32 0, label %154
    i32 1, label %154
  ]

154:                                              ; preds = %152, %152
  ret void

155:                                              ; preds = %152
  unreachable
}